target datalayout = "e-m:e-p270:32:32-p271:32:32-p272:64:64-i64:64-i128:128-f80:128-n8:16:32:64-S128"
target triple = "x86_64-pc-linux-gnu"

%struct.bitstream = type { i64, i64, ptr, ptr, ptr }

@perm_2 = internal constant [16 x i8] c"\00\01\04\05\02\08\06\09\03\0C\0A\07\0D\0B\0E\0F", align 256

; Function Attrs: nounwind uwtable
define internal void @rev_inv_lift_int32(ptr noundef %0, i64 noundef %1) #0 {
  %3 = alloca ptr, align 8
  %4 = alloca i64, align 8
  %5 = alloca i32, align 4
  %6 = alloca i32, align 4
  %7 = alloca i32, align 4
  %8 = alloca i32, align 4
  store ptr %0, ptr %3, align 8, !tbaa !28
  store i64 %1, ptr %4, align 8, !tbaa !30
  call void @llvm.lifetime.start.p0(i64 4, ptr %5) #5
  call void @llvm.lifetime.start.p0(i64 4, ptr %6) #5
  call void @llvm.lifetime.start.p0(i64 4, ptr %7) #5
  call void @llvm.lifetime.start.p0(i64 4, ptr %8) #5
  %9 = load ptr, ptr %3, align 8, !tbaa !28
  %10 = load i32, ptr %9, align 4, !tbaa !15
  store i32 %10, ptr %5, align 4, !tbaa !15
  %11 = load i64, ptr %4, align 8, !tbaa !30
  %12 = load ptr, ptr %3, align 8, !tbaa !28
  %13 = getelementptr inbounds i32, ptr %12, i64 %11
  store ptr %13, ptr %3, align 8, !tbaa !28
  %14 = load ptr, ptr %3, align 8, !tbaa !28
  %15 = load i32, ptr %14, align 4, !tbaa !15
  store i32 %15, ptr %6, align 4, !tbaa !15
  %16 = load i64, ptr %4, align 8, !tbaa !30
  %17 = load ptr, ptr %3, align 8, !tbaa !28
  %18 = getelementptr inbounds i32, ptr %17, i64 %16
  store ptr %18, ptr %3, align 8, !tbaa !28
  %19 = load ptr, ptr %3, align 8, !tbaa !28
  %20 = load i32, ptr %19, align 4, !tbaa !15
  store i32 %20, ptr %7, align 4, !tbaa !15
  %21 = load i64, ptr %4, align 8, !tbaa !30
  %22 = load ptr, ptr %3, align 8, !tbaa !28
  %23 = getelementptr inbounds i32, ptr %22, i64 %21
  store ptr %23, ptr %3, align 8, !tbaa !28
  %24 = load ptr, ptr %3, align 8, !tbaa !28
  %25 = load i32, ptr %24, align 4, !tbaa !15
  store i32 %25, ptr %8, align 4, !tbaa !15
  %26 = load i64, ptr %4, align 8, !tbaa !30
  %27 = load ptr, ptr %3, align 8, !tbaa !28
  %28 = getelementptr inbounds i32, ptr %27, i64 %26
  store ptr %28, ptr %3, align 8, !tbaa !28
  %29 = load i32, ptr %7, align 4, !tbaa !15
  %30 = load i32, ptr %8, align 4, !tbaa !15
  %31 = add i32 %30, %29
  store i32 %31, ptr %8, align 4, !tbaa !15
  %32 = load i32, ptr %6, align 4, !tbaa !15
  %33 = load i32, ptr %7, align 4, !tbaa !15
  %34 = add i32 %33, %32
  store i32 %34, ptr %7, align 4, !tbaa !15
  %35 = load i32, ptr %7, align 4, !tbaa !15
  %36 = load i32, ptr %8, align 4, !tbaa !15
  %37 = add i32 %36, %35
  store i32 %37, ptr %8, align 4, !tbaa !15
  %38 = load i32, ptr %5, align 4, !tbaa !15
  %39 = load i32, ptr %6, align 4, !tbaa !15
  %40 = add i32 %39, %38
  store i32 %40, ptr %6, align 4, !tbaa !15
  %41 = load i32, ptr %6, align 4, !tbaa !15
  %42 = load i32, ptr %7, align 4, !tbaa !15
  %43 = add i32 %42, %41
  store i32 %43, ptr %7, align 4, !tbaa !15
  %44 = load i32, ptr %7, align 4, !tbaa !15
  %45 = load i32, ptr %8, align 4, !tbaa !15
  %46 = add i32 %45, %44
  store i32 %46, ptr %8, align 4, !tbaa !15
  %47 = load i64, ptr %4, align 8, !tbaa !30
  %48 = load ptr, ptr %3, align 8, !tbaa !28
  %49 = sub i64 0, %47
  %50 = getelementptr inbounds i32, ptr %48, i64 %49
  store ptr %50, ptr %3, align 8, !tbaa !28
  %51 = load i32, ptr %8, align 4, !tbaa !15
  %52 = load ptr, ptr %3, align 8, !tbaa !28
  store i32 %51, ptr %52, align 4, !tbaa !15
  %53 = load i64, ptr %4, align 8, !tbaa !30
  %54 = load ptr, ptr %3, align 8, !tbaa !28
  %55 = sub i64 0, %53
  %56 = getelementptr inbounds i32, ptr %54, i64 %55
  store ptr %56, ptr %3, align 8, !tbaa !28
  %57 = load i32, ptr %7, align 4, !tbaa !15
  %58 = load ptr, ptr %3, align 8, !tbaa !28
  store i32 %57, ptr %58, align 4, !tbaa !15
  %59 = load i64, ptr %4, align 8, !tbaa !30
  %60 = load ptr, ptr %3, align 8, !tbaa !28
  %61 = sub i64 0, %59
  %62 = getelementptr inbounds i32, ptr %60, i64 %61
  store ptr %62, ptr %3, align 8, !tbaa !28
  %63 = load i32, ptr %6, align 4, !tbaa !15
  %64 = load ptr, ptr %3, align 8, !tbaa !28
  store i32 %63, ptr %64, align 4, !tbaa !15
  %65 = load i64, ptr %4, align 8, !tbaa !30
  %66 = load ptr, ptr %3, align 8, !tbaa !28
  %67 = sub i64 0, %65
  %68 = getelementptr inbounds i32, ptr %66, i64 %67
  store ptr %68, ptr %3, align 8, !tbaa !28
  %69 = load i32, ptr %5, align 4, !tbaa !15
  %70 = load ptr, ptr %3, align 8, !tbaa !28
  store i32 %69, ptr %70, align 4, !tbaa !15
  call void @llvm.lifetime.end.p0(i64 4, ptr %8) #5
  call void @llvm.lifetime.end.p0(i64 4, ptr %7) #5
  call void @llvm.lifetime.end.p0(i64 4, ptr %6) #5
  call void @llvm.lifetime.end.p0(i64 4, ptr %5) #5
  ret void
}

; Function Attrs: nounwind uwtable
define internal i32 @uint2int_uint32(i32 noundef %0) #0 {
  %2 = alloca i32, align 4
  store i32 %0, ptr %2, align 4, !tbaa !15
  %3 = load i32, ptr %2, align 4, !tbaa !15
  %4 = xor i32 %3, -1431655766
  %5 = sub i32 %4, -1431655766
  ret i32 %5
}

; Function Attrs: inlinehint nounwind uwtable
define internal void @stream_rseek(ptr noundef %0, i64 noundef %1) #2 {
  %3 = alloca ptr, align 8
  %4 = alloca i64, align 8
  %5 = alloca i64, align 8
  store ptr %0, ptr %3, align 8, !tbaa !22
  store i64 %1, ptr %4, align 8, !tbaa !30
  call void @llvm.lifetime.start.p0(i64 8, ptr %5) #5
  %6 = load i64, ptr %4, align 8, !tbaa !30
  %7 = urem i64 %6, 64
  store i64 %7, ptr %5, align 8, !tbaa !30
  %8 = load ptr, ptr %3, align 8, !tbaa !22
  %9 = getelementptr inbounds nuw %struct.bitstream, ptr %8, i32 0, i32 3
  %10 = load ptr, ptr %9, align 8, !tbaa !37
  %11 = load i64, ptr %4, align 8, !tbaa !30
  %12 = udiv i64 %11, 64
  %13 = getelementptr inbounds nuw i64, ptr %10, i64 %12
  %14 = load ptr, ptr %3, align 8, !tbaa !22
  %15 = getelementptr inbounds nuw %struct.bitstream, ptr %14, i32 0, i32 2
  store ptr %13, ptr %15, align 8, !tbaa !31
  %16 = load i64, ptr %5, align 8, !tbaa !30
  %17 = icmp ne i64 %16, 0
  br i1 %17, label %18, label %29

18:                                               ; preds = %2
  %19 = load ptr, ptr %3, align 8, !tbaa !22
  %20 = call i64 @stream_read_word(ptr noundef %19)
  %21 = load i64, ptr %5, align 8, !tbaa !30
  %22 = lshr i64 %20, %21
  %23 = load ptr, ptr %3, align 8, !tbaa !22
  %24 = getelementptr inbounds nuw %struct.bitstream, ptr %23, i32 0, i32 1
  store i64 %22, ptr %24, align 8, !tbaa !27
  %25 = load i64, ptr %5, align 8, !tbaa !30
  %26 = sub i64 64, %25
  %27 = load ptr, ptr %3, align 8, !tbaa !22
  %28 = getelementptr inbounds nuw %struct.bitstream, ptr %27, i32 0, i32 0
  store i64 %26, ptr %28, align 8, !tbaa !23
  br label %34

29:                                               ; preds = %2
  %30 = load ptr, ptr %3, align 8, !tbaa !22
  %31 = getelementptr inbounds nuw %struct.bitstream, ptr %30, i32 0, i32 1
  store i64 0, ptr %31, align 8, !tbaa !27
  %32 = load ptr, ptr %3, align 8, !tbaa !22
  %33 = getelementptr inbounds nuw %struct.bitstream, ptr %32, i32 0, i32 0
  store i64 0, ptr %33, align 8, !tbaa !23
  br label %34

34:                                               ; preds = %29, %18
  call void @llvm.lifetime.end.p0(i64 8, ptr %5) #5
  ret void
}

; Function Attrs: inlinehint nounwind uwtable
define internal i64 @stream_rtell(ptr noundef %0) #2 {
  %2 = alloca ptr, align 8
  store ptr %0, ptr %2, align 8, !tbaa !22
  %3 = load ptr, ptr %2, align 8, !tbaa !22
  %4 = getelementptr inbounds nuw %struct.bitstream, ptr %3, i32 0, i32 2
  %5 = load ptr, ptr %4, align 8, !tbaa !31
  %6 = load ptr, ptr %2, align 8, !tbaa !22
  %7 = getelementptr inbounds nuw %struct.bitstream, ptr %6, i32 0, i32 3
  %8 = load ptr, ptr %7, align 8, !tbaa !37
  %9 = ptrtoint ptr %5 to i64
  %10 = ptrtoint ptr %8 to i64
  %11 = sub i64 %9, %10
  %12 = sdiv exact i64 %11, 8
  %13 = mul i64 %12, 64
  %14 = load ptr, ptr %2, align 8, !tbaa !22
  %15 = getelementptr inbounds nuw %struct.bitstream, ptr %14, i32 0, i32 0
  %16 = load i64, ptr %15, align 8, !tbaa !23
  %17 = sub i64 %13, %16
  ret i64 %17
}

; Function Attrs: nounwind uwtable
define internal i64 @stream_read_word(ptr noundef %0) #0 {
  %2 = alloca ptr, align 8
  %3 = alloca i64, align 8
  store ptr %0, ptr %2, align 8, !tbaa !22
  call void @llvm.lifetime.start.p0(i64 8, ptr %3) #5
  %4 = load ptr, ptr %2, align 8, !tbaa !22
  %5 = getelementptr inbounds nuw %struct.bitstream, ptr %4, i32 0, i32 2
  %6 = load ptr, ptr %5, align 8, !tbaa !31
  %7 = getelementptr inbounds nuw i64, ptr %6, i32 1
  store ptr %7, ptr %5, align 8, !tbaa !31
  %8 = load i64, ptr %6, align 8, !tbaa !30
  store i64 %8, ptr %3, align 8, !tbaa !30
  %9 = load i64, ptr %3, align 8, !tbaa !30
  call void @llvm.lifetime.end.p0(i64 8, ptr %3) #5
  ret i64 %9
}

; Function Attrs: nounwind uwtable
define internal void @rev_inv_xform_int32_2(ptr noundef %0) #0 {
  %2 = alloca ptr, align 8
  %3 = alloca i32, align 4
  %4 = alloca i32, align 4
  store ptr %0, ptr %2, align 8, !tbaa !28
  call void @llvm.lifetime.start.p0(i64 4, ptr %3) #5
  call void @llvm.lifetime.start.p0(i64 4, ptr %4) #5
  store i32 0, ptr %3, align 4, !tbaa !15
  br label %5

5:                                                ; preds = %14, %1
  %6 = load i32, ptr %3, align 4, !tbaa !15
  %7 = icmp ult i32 %6, 4
  br i1 %7, label %8, label %17

8:                                                ; preds = %5
  %9 = load ptr, ptr %2, align 8, !tbaa !28
  %10 = load i32, ptr %3, align 4, !tbaa !15
  %11 = mul i32 1, %10
  %12 = zext i32 %11 to i64
  %13 = getelementptr inbounds nuw i32, ptr %9, i64 %12
  call void @rev_inv_lift_int32(ptr noundef %13, i64 noundef 4)
  br label %14

14:                                               ; preds = %8
  %15 = load i32, ptr %3, align 4, !tbaa !15
  %16 = add i32 %15, 1
  store i32 %16, ptr %3, align 4, !tbaa !15
  br label %5

17:                                               ; preds = %5
  store i32 0, ptr %4, align 4, !tbaa !15
  br label %18

18:                                               ; preds = %27, %17
  %19 = load i32, ptr %4, align 4, !tbaa !15
  %20 = icmp ult i32 %19, 4
  br i1 %20, label %21, label %30

21:                                               ; preds = %18
  %22 = load ptr, ptr %2, align 8, !tbaa !28
  %23 = load i32, ptr %4, align 4, !tbaa !15
  %24 = mul i32 4, %23
  %25 = zext i32 %24 to i64
  %26 = getelementptr inbounds nuw i32, ptr %22, i64 %25
  call void @rev_inv_lift_int32(ptr noundef %26, i64 noundef 1)
  br label %27

27:                                               ; preds = %21
  %28 = load i32, ptr %4, align 4, !tbaa !15
  %29 = add i32 %28, 1
  store i32 %29, ptr %4, align 4, !tbaa !15
  br label %18

30:                                               ; preds = %18
  call void @llvm.lifetime.end.p0(i64 4, ptr %4) #5
  call void @llvm.lifetime.end.p0(i64 4, ptr %3) #5
  ret void
}

; Function Attrs: nounwind uwtable
define internal void @inv_order_int32(ptr noundef %0, ptr noundef %1, ptr noundef %2, i32 noundef %3) #0 {
  %5 = alloca ptr, align 8
  %6 = alloca ptr, align 8
  %7 = alloca ptr, align 8
  %8 = alloca i32, align 4
  store ptr %0, ptr %5, align 8, !tbaa !28
  store ptr %1, ptr %6, align 8, !tbaa !28
  store ptr %2, ptr %7, align 8, !tbaa !32
  store i32 %3, ptr %8, align 4, !tbaa !15
  br label %9

9:                                                ; preds = %20, %4
  %10 = load ptr, ptr %5, align 8, !tbaa !28
  %11 = getelementptr inbounds nuw i32, ptr %10, i32 1
  store ptr %11, ptr %5, align 8, !tbaa !28
  %12 = load i32, ptr %10, align 4, !tbaa !15
  %13 = call i32 @uint2int_uint32(i32 noundef %12)
  %14 = load ptr, ptr %6, align 8, !tbaa !28
  %15 = load ptr, ptr %7, align 8, !tbaa !32
  %16 = getelementptr inbounds nuw i8, ptr %15, i32 1
  store ptr %16, ptr %7, align 8, !tbaa !32
  %17 = load i8, ptr %15, align 1, !tbaa !34
  %18 = zext i8 %17 to i64
  %19 = getelementptr inbounds nuw i32, ptr %14, i64 %18
  store i32 %13, ptr %19, align 4, !tbaa !15
  br label %20

20:                                               ; preds = %9
  %21 = load i32, ptr %8, align 4, !tbaa !15
  %22 = add i32 %21, -1
  store i32 %22, ptr %8, align 4, !tbaa !15
  %23 = icmp ne i32 %22, 0
  br i1 %23, label %9, label %24

24:                                               ; preds = %20
  ret void
}

; Function Attrs: inlinehint nounwind uwtable
define internal void @stream_skip(ptr noundef %0, i64 noundef %1) #2 {
  %3 = alloca ptr, align 8
  %4 = alloca i64, align 8
  store ptr %0, ptr %3, align 8, !tbaa !22
  store i64 %1, ptr %4, align 8, !tbaa !30
  %5 = load ptr, ptr %3, align 8, !tbaa !22
  %6 = load ptr, ptr %3, align 8, !tbaa !22
  %7 = call i64 @stream_rtell(ptr noundef %6)
  %8 = load i64, ptr %4, align 8, !tbaa !30
  %9 = add i64 %7, %8
  call void @stream_rseek(ptr noundef %5, i64 noundef %9)
  ret void
}

; Function Attrs: inlinehint nounwind uwtable
define internal i64 @stream_read_bits(ptr noundef %0, i64 noundef %1) #2 {
  %3 = alloca ptr, align 8
  %4 = alloca i64, align 8
  %5 = alloca i64, align 8
  store ptr %0, ptr %3, align 8, !tbaa !22
  store i64 %1, ptr %4, align 8, !tbaa !30
  call void @llvm.lifetime.start.p0(i64 8, ptr %5) #5
  %6 = load ptr, ptr %3, align 8, !tbaa !22
  %7 = getelementptr inbounds nuw %struct.bitstream, ptr %6, i32 0, i32 1
  %8 = load i64, ptr %7, align 8, !tbaa !27
  store i64 %8, ptr %5, align 8, !tbaa !30
  %9 = load ptr, ptr %3, align 8, !tbaa !22
  %10 = getelementptr inbounds nuw %struct.bitstream, ptr %9, i32 0, i32 0
  %11 = load i64, ptr %10, align 8, !tbaa !23
  %12 = load i64, ptr %4, align 8, !tbaa !30
  %13 = icmp ult i64 %11, %12
  br i1 %13, label %14, label %63

14:                                               ; preds = %2
  br label %15

15:                                               ; preds = %14
  %16 = load ptr, ptr %3, align 8, !tbaa !22
  %17 = call i64 @stream_read_word(ptr noundef %16)
  %18 = load ptr, ptr %3, align 8, !tbaa !22
  %19 = getelementptr inbounds nuw %struct.bitstream, ptr %18, i32 0, i32 1
  store i64 %17, ptr %19, align 8, !tbaa !27
  %20 = load ptr, ptr %3, align 8, !tbaa !22
  %21 = getelementptr inbounds nuw %struct.bitstream, ptr %20, i32 0, i32 1
  %22 = load i64, ptr %21, align 8, !tbaa !27
  %23 = load ptr, ptr %3, align 8, !tbaa !22
  %24 = getelementptr inbounds nuw %struct.bitstream, ptr %23, i32 0, i32 0
  %25 = load i64, ptr %24, align 8, !tbaa !23
  %26 = shl i64 %22, %25
  %27 = load i64, ptr %5, align 8, !tbaa !30
  %28 = add i64 %27, %26
  store i64 %28, ptr %5, align 8, !tbaa !30
  %29 = load ptr, ptr %3, align 8, !tbaa !22
  %30 = getelementptr inbounds nuw %struct.bitstream, ptr %29, i32 0, i32 0
  %31 = load i64, ptr %30, align 8, !tbaa !23
  %32 = add i64 %31, 64
  store i64 %32, ptr %30, align 8, !tbaa !23
  br label %33

33:                                               ; preds = %15
  br label %34

34:                                               ; preds = %33
  %35 = load i64, ptr %4, align 8, !tbaa !30
  %36 = load ptr, ptr %3, align 8, !tbaa !22
  %37 = getelementptr inbounds nuw %struct.bitstream, ptr %36, i32 0, i32 0
  %38 = load i64, ptr %37, align 8, !tbaa !23
  %39 = sub i64 %38, %35
  store i64 %39, ptr %37, align 8, !tbaa !23
  %40 = load ptr, ptr %3, align 8, !tbaa !22
  %41 = getelementptr inbounds nuw %struct.bitstream, ptr %40, i32 0, i32 0
  %42 = load i64, ptr %41, align 8, !tbaa !23
  %43 = icmp ne i64 %42, 0
  br i1 %43, label %47, label %44

44:                                               ; preds = %34
  %45 = load ptr, ptr %3, align 8, !tbaa !22
  %46 = getelementptr inbounds nuw %struct.bitstream, ptr %45, i32 0, i32 1
  store i64 0, ptr %46, align 8, !tbaa !27
  br label %62

47:                                               ; preds = %34
  %48 = load ptr, ptr %3, align 8, !tbaa !22
  %49 = getelementptr inbounds nuw %struct.bitstream, ptr %48, i32 0, i32 0
  %50 = load i64, ptr %49, align 8, !tbaa !23
  %51 = sub i64 64, %50
  %52 = load ptr, ptr %3, align 8, !tbaa !22
  %53 = getelementptr inbounds nuw %struct.bitstream, ptr %52, i32 0, i32 1
  %54 = load i64, ptr %53, align 8, !tbaa !27
  %55 = lshr i64 %54, %51
  store i64 %55, ptr %53, align 8, !tbaa !27
  %56 = load i64, ptr %4, align 8, !tbaa !30
  %57 = sub i64 %56, 1
  %58 = shl i64 2, %57
  %59 = sub i64 %58, 1
  %60 = load i64, ptr %5, align 8, !tbaa !30
  %61 = and i64 %60, %59
  store i64 %61, ptr %5, align 8, !tbaa !30
  br label %62

62:                                               ; preds = %47, %44
  br label %79

63:                                               ; preds = %2
  %64 = load i64, ptr %4, align 8, !tbaa !30
  %65 = load ptr, ptr %3, align 8, !tbaa !22
  %66 = getelementptr inbounds nuw %struct.bitstream, ptr %65, i32 0, i32 0
  %67 = load i64, ptr %66, align 8, !tbaa !23
  %68 = sub i64 %67, %64
  store i64 %68, ptr %66, align 8, !tbaa !23
  %69 = load i64, ptr %4, align 8, !tbaa !30
  %70 = load ptr, ptr %3, align 8, !tbaa !22
  %71 = getelementptr inbounds nuw %struct.bitstream, ptr %70, i32 0, i32 1
  %72 = load i64, ptr %71, align 8, !tbaa !27
  %73 = lshr i64 %72, %69
  store i64 %73, ptr %71, align 8, !tbaa !27
  %74 = load i64, ptr %4, align 8, !tbaa !30
  %75 = shl i64 1, %74
  %76 = sub i64 %75, 1
  %77 = load i64, ptr %5, align 8, !tbaa !30
  %78 = and i64 %77, %76
  store i64 %78, ptr %5, align 8, !tbaa !30
  br label %79

79:                                               ; preds = %63, %62
  %80 = load i64, ptr %5, align 8, !tbaa !30
  call void @llvm.lifetime.end.p0(i64 8, ptr %5) #5
  ret i64 %80
}

; Function Attrs: nounwind uwtable
define internal i32 @rev_decode_block_int32_2(ptr noundef %0, i32 noundef %1, i32 noundef %2, ptr noundef %3) #0 {
  %5 = alloca ptr, align 8
  %6 = alloca i32, align 4
  %7 = alloca i32, align 4
  %8 = alloca ptr, align 8
  %9 = alloca i32, align 4
  %10 = alloca i32, align 4
  %11 = alloca [16 x i32], align 256
  store ptr %0, ptr %5, align 8, !tbaa !22
  store i32 %1, ptr %6, align 4, !tbaa !15
  store i32 %2, ptr %7, align 4, !tbaa !15
  store ptr %3, ptr %8, align 8, !tbaa !28
  call void @llvm.lifetime.start.p0(i64 4, ptr %9) #5
  store i32 5, ptr %9, align 4, !tbaa !15
  call void @llvm.lifetime.start.p0(i64 4, ptr %10) #5
  %12 = load ptr, ptr %5, align 8, !tbaa !22
  %13 = call i64 @stream_read_bits(ptr noundef %12, i64 noundef 5)
  %14 = trunc i64 %13 to i32
  %15 = add i32 %14, 1
  store i32 %15, ptr %10, align 4, !tbaa !15
  call void @llvm.lifetime.start.p0(i64 64, ptr %11) #5
  %16 = load ptr, ptr %5, align 8, !tbaa !22
  %17 = load i32, ptr %7, align 4, !tbaa !15
  %18 = load i32, ptr %9, align 4, !tbaa !15
  %19 = sub i32 %17, %18
  %20 = load i32, ptr %10, align 4, !tbaa !15
  %21 = getelementptr inbounds [16 x i32], ptr %11, i64 0, i64 0
  %22 = call i32 @decode_ints_uint32(ptr noundef %16, i32 noundef %19, i32 noundef %20, ptr noundef %21, i32 noundef 16)
  %23 = load i32, ptr %9, align 4, !tbaa !15
  %24 = add i32 %23, %22
  store i32 %24, ptr %9, align 4, !tbaa !15
  %25 = load i32, ptr %9, align 4, !tbaa !15
  %26 = load i32, ptr %6, align 4, !tbaa !15
  %27 = icmp ult i32 %25, %26
  br i1 %27, label %28, label %35

28:                                               ; preds = %4
  %29 = load ptr, ptr %5, align 8, !tbaa !22
  %30 = load i32, ptr %6, align 4, !tbaa !15
  %31 = load i32, ptr %9, align 4, !tbaa !15
  %32 = sub i32 %30, %31
  %33 = zext i32 %32 to i64
  call void @stream_skip(ptr noundef %29, i64 noundef %33)
  %34 = load i32, ptr %6, align 4, !tbaa !15
  store i32 %34, ptr %9, align 4, !tbaa !15
  br label %35

35:                                               ; preds = %28, %4
  %36 = getelementptr inbounds [16 x i32], ptr %11, i64 0, i64 0
  %37 = load ptr, ptr %8, align 8, !tbaa !28
  call void @inv_order_int32(ptr noundef %36, ptr noundef %37, ptr noundef @perm_2, i32 noundef 16)
  %38 = load ptr, ptr %8, align 8, !tbaa !28
  call void @rev_inv_xform_int32_2(ptr noundef %38)
  %39 = load i32, ptr %9, align 4, !tbaa !15
  call void @llvm.lifetime.end.p0(i64 64, ptr %11) #5
  call void @llvm.lifetime.end.p0(i64 4, ptr %10) #5
  call void @llvm.lifetime.end.p0(i64 4, ptr %9) #5
  ret i32 %39
}