; Function Attrs: nofree norecurse nosync nounwind memory(read, argmem: readwrite, inaccessiblemem: readwrite) uwtable
define internal fastcc i32 @rev_decode_block_int32_2(ptr noundef captures(none) %0, i32 noundef %1, i32 noundef %2, ptr noundef nonnull captures(none) %3) unnamed_addr #2 {
  %5 = alloca [16 x i32], align 256
  %6 = getelementptr inbounds nuw i8, ptr %0, i64 8
  %7 = load i64, ptr %6, align 8, !tbaa !19
  %8 = load i64, ptr %0, align 8, !tbaa !13
  %9 = icmp ult i64 %8, 5
  br i1 %9, label %10, label %20

10:                                               ; preds = %4
  %11 = getelementptr inbounds nuw i8, ptr %0, i64 16
  %12 = load ptr, ptr %11, align 8, !tbaa !17
  %13 = getelementptr inbounds nuw i8, ptr %12, i64 8
  store ptr %13, ptr %11, align 8, !tbaa !17
  %14 = load i64, ptr %12, align 8, !tbaa !18
  %15 = shl i64 %14, %8
  %16 = add i64 %15, %7
  %17 = add nuw nsw i64 %8, 59
  %18 = sub nuw nsw i64 5, %8
  %19 = lshr i64 %14, %18
  br label %stream_read_bits.exit

20:                                               ; preds = %4
  %21 = add i64 %8, -5
  %22 = lshr i64 %7, 5
  br label %stream_read_bits.exit

stream_read_bits.exit:                            ; preds = %10, %20
  %.sink = phi i64 [ %17, %10 ], [ %21, %20 ]
  %storemerge = phi i64 [ %19, %10 ], [ %22, %20 ]
  %.0.i.in = phi i64 [ %16, %10 ], [ %7, %20 ]
  store i64 %.sink, ptr %0, align 8, !tbaa !13
  store i64 %storemerge, ptr %6, align 8, !tbaa !19
  %23 = trunc i64 %.0.i.in to i32
  %24 = and i32 %23, 31
  %25 = add nuw nsw i32 %24, 1
  call void @llvm.lifetime.start.p0(i64 64, ptr nonnull %5) #8
  %26 = add i32 %2, -5
  %27 = call fastcc i32 @decode_ints_uint32(ptr noundef nonnull %0, i32 noundef %26, i32 noundef %25, ptr noundef %5)
  %28 = add i32 %27, 5
  %29 = icmp ult i32 %28, %1
  br i1 %29, label %30, label %52

30:                                               ; preds = %stream_read_bits.exit
  %31 = sub nuw i32 %1, %28
  %32 = zext i32 %31 to i64
  %33 = getelementptr inbounds nuw i8, ptr %0, i64 16
  %34 = load ptr, ptr %33, align 8, !tbaa !17
  %35 = getelementptr inbounds nuw i8, ptr %0, i64 24
  %36 = load ptr, ptr %35, align 8, !tbaa !25
  %37 = ptrtoint ptr %34 to i64
  %38 = ptrtoint ptr %36 to i64
  %39 = sub i64 %37, %38
  %40 = shl i64 %39, 3
  %41 = load i64, ptr %0, align 8, !tbaa !13
  %42 = sub i64 %40, %41
  %43 = add i64 %42, %32
  %44 = and i64 %43, 63
  %45 = lshr i64 %43, 6
  %46 = getelementptr inbounds nuw i64, ptr %36, i64 %45
  store ptr %46, ptr %33, align 8, !tbaa !17
  %.not.i.i = icmp eq i64 %44, 0
  br i1 %.not.i.i, label %stream_skip.exit, label %47

47:                                               ; preds = %30
  %48 = getelementptr inbounds nuw i8, ptr %46, i64 8
  store ptr %48, ptr %33, align 8, !tbaa !17
  %49 = load i64, ptr %46, align 8, !tbaa !18
  %50 = lshr i64 %49, %44
  %51 = sub nuw nsw i64 64, %44
  br label %stream_skip.exit

stream_skip.exit:                                 ; preds = %30, %47
  %.sink.i.i = phi i64 [ %50, %47 ], [ 0, %30 ]
  %storemerge.i.i = phi i64 [ %51, %47 ], [ 0, %30 ]
  store i64 %.sink.i.i, ptr %6, align 8, !tbaa !19
  store i64 %storemerge.i.i, ptr %0, align 8, !tbaa !13
  br label %52

52:                                               ; preds = %stream_skip.exit, %stream_read_bits.exit
  %.0 = phi i32 [ %1, %stream_skip.exit ], [ %28, %stream_read_bits.exit ]
  br label %53

53:                                               ; preds = %53, %52
  %.04.i = phi ptr [ %5, %52 ], [ %54, %53 ]
  %.03.i = phi ptr [ @perm_2, %52 ], [ %58, %53 ]
  %.0.i16 = phi i32 [ 16, %52 ], [ %62, %53 ]
  %54 = getelementptr inbounds nuw i8, ptr %.04.i, i64 4
  %55 = load i32, ptr %.04.i, align 4, !tbaa !24
  %56 = xor i32 %55, -1431655766
  %57 = add i32 %56, 1431655766
  %58 = getelementptr inbounds nuw i8, ptr %.03.i, i64 1
  %59 = load i8, ptr %.03.i, align 1, !tbaa !27
  %60 = zext i8 %59 to i64
  %61 = getelementptr inbounds nuw i32, ptr %3, i64 %60
  store i32 %57, ptr %61, align 4, !tbaa !24
  %62 = add nsw i32 %.0.i16, -1
  %.not.i = icmp eq i32 %62, 0
  br i1 %.not.i, label %inv_order_int32.exit, label %53

inv_order_int32.exit:                             ; preds = %53, %inv_order_int32.exit
  %indvars.iv.i = phi i64 [ %indvars.iv.next.i, %inv_order_int32.exit ], [ 0, %53 ]
  %63 = getelementptr inbounds nuw i32, ptr %3, i64 %indvars.iv.i
  %64 = load i32, ptr %63, align 4, !tbaa !24
  %65 = getelementptr inbounds nuw i8, ptr %63, i64 16
  %66 = load i32, ptr %65, align 4, !tbaa !24
  %67 = getelementptr inbounds nuw i8, ptr %63, i64 32
  %68 = load i32, ptr %67, align 4, !tbaa !24
  %69 = getelementptr inbounds nuw i8, ptr %63, i64 48
  %70 = load i32, ptr %69, align 4, !tbaa !24
  %71 = add i32 %70, %68
  %72 = add i32 %68, %66
  %73 = add i32 %71, %72
  %74 = add i32 %66, %64
  %75 = add i32 %72, %74
  %76 = add i32 %73, %75
  store i32 %76, ptr %69, align 4, !tbaa !24
  store i32 %75, ptr %67, align 4, !tbaa !24
  store i32 %74, ptr %65, align 4, !tbaa !24
  %indvars.iv.next.i = add nuw nsw i64 %indvars.iv.i, 1
  %exitcond.not.i = icmp eq i64 %indvars.iv.next.i, 4
  br i1 %exitcond.not.i, label %.preheader.i, label %inv_order_int32.exit

.preheader.i:                                     ; preds = %inv_order_int32.exit, %.preheader.i
  %indvars.iv11.i = phi i64 [ %indvars.iv.next12.i, %.preheader.i ], [ 0, %inv_order_int32.exit ]
  %.idx.i = shl nuw nsw i64 %indvars.iv11.i, 4
  %77 = getelementptr inbounds nuw i8, ptr %3, i64 %.idx.i
  %78 = load i32, ptr %77, align 4, !tbaa !24
  %79 = getelementptr inbounds nuw i8, ptr %77, i64 4
  %80 = load i32, ptr %79, align 4, !tbaa !24
  %81 = getelementptr inbounds nuw i8, ptr %77, i64 8
  %82 = load i32, ptr %81, align 4, !tbaa !24
  %83 = getelementptr inbounds nuw i8, ptr %77, i64 12
  %84 = load i32, ptr %83, align 4, !tbaa !24
  %85 = add i32 %84, %82
  %86 = add i32 %82, %80
  %87 = add i32 %85, %86
  %88 = add i32 %80, %78
  %89 = add i32 %86, %88
  %90 = add i32 %87, %89
  store i32 %90, ptr %83, align 4, !tbaa !24
  store i32 %89, ptr %81, align 4, !tbaa !24
  store i32 %88, ptr %79, align 4, !tbaa !24
  %indvars.iv.next12.i = add nuw nsw i64 %indvars.iv11.i, 1
  %exitcond14.not.i = icmp eq i64 %indvars.iv.next12.i, 4
  br i1 %exitcond14.not.i, label %rev_inv_xform_int32_2.exit, label %.preheader.i

rev_inv_xform_int32_2.exit:                       ; preds = %.preheader.i
  call void @llvm.lifetime.end.p0(i64 64, ptr nonnull %5) #8
  ret i32 %.0
}